target datalayout = "e-m:e-p270:32:32-p271:32:32-p272:64:64-i64:64-i128:128-f80:128-n8:16:32:64-S128"
target triple = "x86_64-unknown-linux-gnu"

%class.params_ref = type { ptr }

; Function Attrs: mustprogress uwtable
define hidden void @_ZN10params_ref5resetERK6symbol(ptr noundef nonnull align 8 dereferenceable(8) %this, ptr noundef nonnull align 8 dereferenceable(8) %k) #5 align 2 {
entry:
  %this.addr = alloca ptr, align 8
  %k.addr = alloca ptr, align 8
  store ptr %this, ptr %this.addr, align 8
  store ptr %k, ptr %k.addr, align 8
  %this1 = load ptr, ptr %this.addr, align 8
  %m_params = getelementptr inbounds %class.params_ref, ptr %this1, i32 0, i32 0
  %0 = load ptr, ptr %m_params, align 8
  %tobool = icmp ne ptr %0, null
  br i1 %tobool, label %if.then, label %if.end

if.then:                                          ; preds = %entry
  %m_params2 = getelementptr inbounds %class.params_ref, ptr %this1, i32 0, i32 0
  %1 = load ptr, ptr %m_params2, align 8
  %2 = load ptr, ptr %k.addr, align 8
  call void @_ZN6params5resetERK6symbol(ptr noundef nonnull align 8 dereferenceable(12) %1, ptr noundef nonnull align 8 dereferenceable(8) %2)
  br label %if.end

if.end:                                           ; preds = %if.then, %entry
  ret void
}